(dp0
S'_StoreService:History'
p1
(lp2
(dp3
S'InstallIdentifier'
p4
S'com.plexapp.system.services'
p5
sS'InstallDate'
p6
cdatetime
datetime
p7
(S'\x07\xe2\x03\x17\x106\n\x0b>7'
p8
tp9
Rp10
sS'InstallAction'
p11
S'Plug in installed (revision 8954337)'
p12
sasS'_AgentService:AgentInfo'
p13
(dp14
S'com.plexapp.agents.fanarttv'
p15
(lp16
(dp17
S'media_types'
p18
(lp19
S'Movie'
p20
asS'accepts_from'
p21
NsS'fallback_agent'
p22
NsS'contributes_to'
p23
(lp24
S'com.plexapp.agents.imdb'
p25
aS'com.plexapp.agents.themoviedb'
p26
asS'has_attribution'
p27
I01
sS'languages'
p28
(lp29
S'xn'
p30
asS'persist_stored_files'
p31
I01
sS'version'
p32
I0
sS'primary_provider'
p33
I00
sS'prefs'
p34
I01
sS'name'
p35
S'Fanart.tv'
p36
sa(dp37
S'media_types'
p38
(lp39
S'TV_Show'
p40
asS'accepts_from'
p41
NsS'fallback_agent'
p42
NsS'contributes_to'
p43
(lp44
S'com.plexapp.agents.thetvdb'
p45
aS'com.plexapp.agents.themoviedb'
p46
asg27
I01
sS'languages'
p47
(lp48
S'xn'
p49
asS'persist_stored_files'
p50
I01
sS'version'
p51
I0
sS'primary_provider'
p52
I00
sS'prefs'
p53
I01
sS'name'
p54
S'Fanart.tv'
p55
sa(dp56
S'media_types'
p57
(lp58
S'Artist'
p59
asS'accepts_from'
p60
NsS'fallback_agent'
p61
NsS'contributes_to'
p62
(lp63
S'com.plexapp.agents.lastfm'
p64
asg27
I01
sS'languages'
p65
(lp66
S'xn'
p67
asS'persist_stored_files'
p68
I01
sS'version'
p69
I0
sS'primary_provider'
p70
I00
sS'prefs'
p71
I01
sS'name'
p72
S'Fanart.tv'
p73
sa(dp74
S'media_types'
p75
(lp76
S'Album'
p77
asS'accepts_from'
p78
NsS'fallback_agent'
p79
NsS'contributes_to'
p80
(lp81
S'com.plexapp.agents.lastfm'
p82
asg27
I01
sS'languages'
p83
(lp84
S'xn'
p85
asS'persist_stored_files'
p86
I01
sS'version'
p87
I0
sS'primary_provider'
p88
I00
sS'prefs'
p89
I01
sS'name'
p90
S'Fanart.tv'
p91
sasS'com.plexapp.agents.none'
p92
(lp93
(dp94
S'media_types'
p95
(lp96
S'Movie'
p97
asS'accepts_from'
p98
NsS'fallback_agent'
p99
NsS'contributes_to'
p100
Nsg27
I00
sS'languages'
p101
(lp102
S'xn'
p103
asS'persist_stored_files'
p104
I01
sS'version'
p105
I0
sS'primary_provider'
p106
I01
sS'prefs'
p107
I00
sS'name'
p108
S'Personal Media'
p109
sa(dp110
S'media_types'
p111
(lp112
S'TV_Show'
p113
asS'accepts_from'
p114
NsS'fallback_agent'
p115
NsS'contributes_to'
p116
Nsg27
I00
sS'languages'
p117
(lp118
S'xn'
p119
asS'persist_stored_files'
p120
I01
sS'version'
p121
I0
sS'primary_provider'
p122
I01
sS'prefs'
p123
I00
sS'name'
p124
S'Personal Media Shows'
p125
sa(dp126
S'media_types'
p127
(lp128
S'Artist'
p129
asS'accepts_from'
p130
NsS'fallback_agent'
p131
NsS'contributes_to'
p132
Nsg27
I00
sS'languages'
p133
(lp134
S'xn'
p135
asS'persist_stored_files'
p136
I01
sS'version'
p137
I0
sS'primary_provider'
p138
I01
sS'prefs'
p139
I00
sS'name'
p140
S'Personal Media Artists'
p141
sa(dp142
S'media_types'
p143
(lp144
S'Album'
p145
asS'accepts_from'
p146
NsS'fallback_agent'
p147
NsS'contributes_to'
p148
Nsg27
I00
sS'languages'
p149
(lp150
S'xn'
p151
asS'persist_stored_files'
p152
I01
sS'version'
p153
I0
sS'primary_provider'
p154
I01
sS'prefs'
p155
I00
sS'name'
p156
S'Personal Media Albums'
p157
sa(dp158
S'media_types'
p159
(lp160
S'Photo'
p161
asS'accepts_from'
p162
NsS'fallback_agent'
p163
NsS'contributes_to'
p164
Nsg27
I00
sS'languages'
p165
(lp166
S'en'
p167
aS'ar'
p168
aS'bg'
p169
aS'ca'
p170
aS'cs'
p171
aS'cy'
p172
aS'da'
p173
aS'de'
p174
aS'el'
p175
aS'es'
p176
aS'et'
p177
aS'fa'
p178
aS'fi'
p179
aS'fr'
p180
aS'he'
p181
aS'hi'
p182
aS'hr'
p183
aS'ht'
p184
aS'hu'
p185
aS'id'
p186
aS'it'
p187
aS'ja'
p188
aS'ko'
p189
aS'lt'
p190
aS'lv'
p191
aS'ms'
p192
aS'mt'
p193
aS'nl'
p194
aS'no'
p195
aS'pl'
p196
aS'pt'
p197
aS'ro'
p198
aS'ru'
p199
aS'sk'
p200
aS'sv'
p201
aS'sl'
p202
aS'sr'
p203
aS'th'
p204
aS'tr'
p205
aS'uk'
p206
aS'ur'
p207
aS'vi'
p208
aS'zh'
p209
aS'xn'
p210
asS'persist_stored_files'
p211
I01
sS'version'
p212
I0
sS'primary_provider'
p213
I01
sS'prefs'
p214
I00
sS'name'
p215
S'Photos'
p216
sasS'com.plexapp.agents.plexmusic'
p217
(lp218
(dp219
S'media_types'
p220
(lp221
S'Artist'
p222
asS'primary_provider'
p223
I01
sS'fallback_agent'
p224
NsS'contributes_to'
p225
(lp226
S'com.plexapp.agents.localmedia'
p227
asS'has_attribution'
p228
I01
sS'languages'
p229
(lp230
S'en'
p231
aS'ar'
p232
aS'bg'
p233
aS'zh'
p234
aS'hr'
p235
aS'cs'
p236
aS'da'
p237
aS'nl'
p238
aS'fi'
p239
aS'fr'
p240
aS'de'
p241
aS'el'
p242
aS'hu'
p243
aS'id'
p244
aS'it'
p245
aS'ja'
p246
aS'ko'
p247
aS'nn'
p248
aS'pl'
p249
aS'pt'
p250
aS'ro'
p251
aS'ru'
p252
aS'sr'
p253
aS'sk'
p254
aS'es'
p255
aS'sv'
p256
aS'th'
p257
aS'tr'
p258
aS'vi'
p259
asS'persist_stored_files'
p260
I01
sS'version'
p261
I0
sS'accepts_from'
p262
NsS'prefs'
p263
I01
sS'name'
p264
S'Plex Premium Music'
p265
sa(dp266
S'media_types'
p267
(lp268
S'Album'
p269
asS'primary_provider'
p270
I01
sS'fallback_agent'
p271
NsS'contributes_to'
p272
(lp273
S'com.plexapp.agents.localmedia'
p274
asg228
I01
sS'languages'
p275
(lp276
S'en'
p277
aS'ar'
p278
aS'bg'
p279
aS'zh'
p280
aS'hr'
p281
aS'cs'
p282
aS'da'
p283
aS'nl'
p284
aS'fi'
p285
aS'fr'
p286
aS'de'
p287
aS'el'
p288
aS'hu'
p289
aS'id'
p290
aS'it'
p291
aS'ja'
p292
aS'ko'
p293
aS'nn'
p294
aS'pl'
p295
aS'pt'
p296
aS'ro'
p297
aS'ru'
p298
aS'sr'
p299
aS'sk'
p300
aS'es'
p301
aS'sv'
p302
aS'th'
p303
aS'tr'
p304
aS'vi'
p305
asS'persist_stored_files'
p306
I01
sS'version'
p307
I0
sS'accepts_from'
p308
NsS'prefs'
p309
I01
sS'name'
p310
S'Plex Premium Music'
p311
sasS'com.plexapp.agents.opensubtitles'
p312
(lp313
(dp314
S'media_types'
p315
(lp316
S'Movie'
p317
asS'accepts_from'
p318
NsS'fallback_agent'
p319
NsS'contributes_to'
p320
(lp321
S'com.plexapp.agents.imdb'
p322
asg27
I00
sS'languages'
p323
(lp324
S'xn'
p325
asS'persist_stored_files'
p326
I01
sS'version'
p327
I0
sS'primary_provider'
p328
I00
sS'prefs'
p329
I01
sS'name'
p330
S'OpenSubtitles.org'
p331
sa(dp332
S'media_types'
p333
(lp334
S'TV_Show'
p335
asS'accepts_from'
p336
NsS'fallback_agent'
p337
NsS'contributes_to'
p338
(lp339
S'com.plexapp.agents.thetvdb'
p340
asg27
I00
sS'languages'
p341
(lp342
S'xn'
p343
asS'persist_stored_files'
p344
I01
sS'version'
p345
I0
sS'primary_provider'
p346
I00
sS'prefs'
p347
I01
sS'name'
p348
S'OpenSubtitles.org'
p349
sasS'com.plexapp.agents.imdb'
p350
(lp351
(dp352
S'media_types'
p353
(lp354
S'Movie'
p355
asS'primary_provider'
p356
I01
sS'fallback_agent'
p357
NsS'contributes_to'
p358
(lp359
S'com.plexapp.agents.themoviedb'
p360
asg228
I01
sS'languages'
p361
(lp362
S'en'
p363
aS'sv'
p364
aS'fr'
p365
aS'es'
p366
aS'nl'
p367
aS'de'
p368
aS'it'
p369
aS'da'
p370
aS'ar'
p371
aS'ca'
p372
aS'zh'
p373
aS'cs'
p374
aS'et'
p375
aS'fi'
p376
aS'el'
p377
aS'he'
p378
aS'hi'
p379
aS'hu'
p380
aS'id'
p381
aS'ja'
p382
aS'ko'
p383
aS'lv'
p384
aS'no'
p385
aS'fa'
p386
aS'pl'
p387
aS'pt'
p388
aS'ro'
p389
aS'ru'
p390
aS'sk'
p391
aS'th'
p392
aS'tr'
p393
aS'uk'
p394
aS'vi'
p395
asS'persist_stored_files'
p396
I01
sS'version'
p397
I0
sS'accepts_from'
p398
(lp399
S'com.plexapp.agents.localmedia'
p400
asS'prefs'
p401
I01
sS'name'
p402
S'Plex Movie'
p403
sasS'com.plexapp.agents.lyricfind'
p404
(lp405
(dp406
S'media_types'
p407
(lp408
S'Album'
p409
asS'primary_provider'
p410
I00
sS'fallback_agent'
p411
NsS'contributes_to'
p412
(lp413
S'com.plexapp.agents.plexmusic'
p414
aS'com.plexapp.agents.localmedia'
p415
aS'com.plexapp.agents.lastfm'
p416
asg228
I01
sS'languages'
p417
(lp418
S'xn'
p419
asS'persist_stored_files'
p420
I01
sS'version'
p421
I0
sS'accepts_from'
p422
NsS'prefs'
p423
I00
sS'name'
p424
S'LyricFind'
p425
sasS'com.plexapp.agents.thetvdb'
p426
(lp427
(dp428
S'media_types'
p429
(lp430
S'TV_Show'
p431
asS'accepts_from'
p432
NsS'fallback_agent'
p433
NsS'contributes_to'
p434
Nsg27
I01
sS'languages'
p435
(lp436
S'en'
p437
aS'fr'
p438
aS'zh'
p439
aS'sv'
p440
aS'no'
p441
aS'da'
p442
aS'fi'
p443
aS'nl'
p444
aS'de'
p445
aS'it'
p446
aS'es'
p447
aS'pl'
p448
aS'hu'
p449
aS'el'
p450
aS'tr'
p451
aS'ru'
p452
aS'he'
p453
aS'ja'
p454
aS'pt'
p455
aS'cs'
p456
aS'ko'
p457
aS'sl'
p458
aS'hr'
p459
asS'persist_stored_files'
p460
I01
sS'version'
p461
I0
sS'primary_provider'
p462
I01
sS'prefs'
p463
I01
sS'name'
p464
S'TheTVDB'
p465
sasS'com.plexapp.agents.localmedia'
p466
(lp467
(dp468
S'media_types'
p469
(lp470
S'Movie'
p471
asS'primary_provider'
p472
I00
sS'fallback_agent'
p473
NsS'contributes_to'
p474
(lp475
S'com.plexapp.agents.imdb'
p476
aS'com.plexapp.agents.none'
p477
asg228
I00
sS'languages'
p478
(lp479
S'xn'
p480
asS'persist_stored_files'
p481
I00
sS'version'
p482
I0
sS'accepts_from'
p483
NsS'prefs'
p484
I01
sS'name'
p485
S'Local Media Assets (Movies)'
p486
sa(dp487
S'media_types'
p488
(lp489
S'TV_Show'
p490
asS'primary_provider'
p491
I00
sS'fallback_agent'
p492
NsS'contributes_to'
p493
(lp494
S'com.plexapp.agents.thetvdb'
p495
aS'com.plexapp.agents.none'
p496
asg228
I00
sS'languages'
p497
(lp498
S'xn'
p499
asS'persist_stored_files'
p500
I00
sS'version'
p501
I0
sS'accepts_from'
p502
NsS'prefs'
p503
I01
sS'name'
p504
S'Local Media Assets (TV)'
p505
sa(dp506
S'media_types'
p507
(lp508
S'Artist'
p509
asS'primary_provider'
p510
I00
sS'fallback_agent'
p511
NsS'contributes_to'
p512
(lp513
S'com.plexapp.agents.discogs'
p514
aS'com.plexapp.agents.lastfm'
p515
aS'com.plexapp.agents.plexmusic'
p516
aS'com.plexapp.agents.none'
p517
asg228
I00
sS'languages'
p518
(lp519
S'xn'
p520
asS'persist_stored_files'
p521
I00
sS'version'
p522
I0
sS'accepts_from'
p523
NsS'prefs'
p524
I01
sS'name'
p525
S'Local Media Assets (Artists)'
p526
sa(dp527
S'media_types'
p528
(lp529
S'Artist'
p530
asS'primary_provider'
p531
I00
sS'fallback_agent'
p532
NsS'contributes_to'
p533
(lp534
S'com.plexapp.agents.plexmusic'
p535
asg228
I00
sS'languages'
p536
g519
sS'persist_stored_files'
p537
I00
sS'version'
p538
I2
sS'accepts_from'
p539
NsS'prefs'
p540
I01
sS'name'
p541
S'Local Media Assets (Artists)'
p542
sa(dp543
S'media_types'
p544
(lp545
S'Album'
p546
asS'primary_provider'
p547
I00
sS'fallback_agent'
p548
NsS'contributes_to'
p549
(lp550
S'com.plexapp.agents.discogs'
p551
aS'com.plexapp.agents.lastfm'
p552
aS'com.plexapp.agents.plexmusic'
p553
aS'com.plexapp.agents.none'
p554
asg228
I00
sS'languages'
p555
(lp556
S'xn'
p557
asS'persist_stored_files'
p558
I00
sS'version'
p559
I0
sS'accepts_from'
p560
NsS'prefs'
p561
I01
sS'name'
p562
S'Local Media Assets (Albums)'
p563
sasS'com.plexapp.agents.plexthememusic'
p564
(lp565
(dp566
S'media_types'
p567
(lp568
S'TV_Show'
p569
asS'accepts_from'
p570
NsS'fallback_agent'
p571
NsS'contributes_to'
p572
(lp573
S'com.plexapp.agents.thetvdb'
p574
aS'com.plexapp.agents.thetvdbdvdorder'
p575
aS'com.plexapp.agents.themoviedb'
p576
asg27
I00
sS'languages'
p577
(lp578
S'xn'
p579
asS'persist_stored_files'
p580
I01
sS'version'
p581
I0
sS'primary_provider'
p582
I00
sS'prefs'
p583
I00
sS'name'
p584
S'Plex Theme Music'
p585
sasS'com.plexapp.agents.themoviedb'
p586
(lp587
(dp588
S'media_types'
p589
(lp590
S'Movie'
p591
asS'accepts_from'
p592
(lp593
S'com.plexapp.agents.localmedia'
p594
asS'fallback_agent'
p595
NsS'contributes_to'
p596
Nsg27
I01
sS'languages'
p597
(lp598
S'en'
p599
aS'cs'
p600
aS'da'
p601
aS'de'
p602
aS'el'
p603
aS'es'
p604
aS'fi'
p605
aS'fr'
p606
aS'he'
p607
aS'hr'
p608
aS'hu'
p609
aS'it'
p610
aS'lv'
p611
aS'nl'
p612
aS'no'
p613
aS'pl'
p614
aS'pt'
p615
aS'ru'
p616
aS'sk'
p617
aS'sv'
p618
aS'th'
p619
aS'tr'
p620
aS'vi'
p621
aS'zh'
p622
aS'ko'
p623
asS'persist_stored_files'
p624
I01
sS'version'
p625
I0
sS'primary_provider'
p626
I01
sS'prefs'
p627
I01
sS'name'
p628
S'The Movie Database'
p629
sa(dp630
S'media_types'
p631
(lp632
S'TV_Show'
p633
asS'accepts_from'
p634
(lp635
S'com.plexapp.agents.localmedia'
p636
aS'com.plexapp.agents.thetvdb'
p637
asS'fallback_agent'
p638
NsS'contributes_to'
p639
(lp640
S'com.plexapp.agents.thetvdb'
p641
asg27
I01
sS'languages'
p642
g598
sS'persist_stored_files'
p643
I01
sS'version'
p644
I0
sS'primary_provider'
p645
I01
sS'prefs'
p646
I01
sS'name'
p647
S'The Movie Database'
p648
sasS'com.plexapp.agents.movieposterdb'
p649
(lp650
(dp651
S'media_types'
p652
(lp653
S'Movie'
p654
asS'accepts_from'
p655
NsS'fallback_agent'
p656
NsS'contributes_to'
p657
(lp658
S'com.plexapp.agents.imdb'
p659
asg27
I01
sS'languages'
p660
(lp661
S'xn'
p662
asS'persist_stored_files'
p663
I01
sS'version'
p664
I0
sS'primary_provider'
p665
I00
sS'prefs'
p666
I00
sS'name'
p667
S'CineMaterial'
p668
sasS'com.plexapp.agents.htbackdrops'
p669
(lp670
(dp671
S'media_types'
p672
(lp673
S'Artist'
p674
asS'primary_provider'
p675
I00
sS'fallback_agent'
p676
NsS'contributes_to'
p677
(lp678
S'com.plexapp.agents.lastfm'
p679
asg228
I01
sS'languages'
p680
(lp681
S'ab'
p682
aS'aa'
p683
aS'af'
p684
aS'ak'
p685
aS'sq'
p686
aS'am'
p687
aS'ar'
p688
aS'an'
p689
aS'hy'
p690
aS'as'
p691
aS'av'
p692
aS'ae'
p693
aS'ay'
p694
aS'az'
p695
aS'bm'
p696
aS'ba'
p697
aS'eu'
p698
aS'be'
p699
aS'bn'
p700
aS'bh'
p701
aS'bi'
p702
aS'bs'
p703
aS'pb'
p704
aS'br'
p705
aS'bg'
p706
aS'my'
p707
aS'ca'
p708
aS'ch'
p709
aS'ce'
p710
aS'ny'
p711
aS'zh'
p712
aS'cu'
p713
aS'cv'
p714
aS'kw'
p715
aS'co'
p716
aS'cr'
p717
aS'hr'
p718
aS'cs'
p719
aS'da'
p720
aS'dv'
p721
aS'nl'
p722
aS'dz'
p723
aS'en'
p724
aS'eo'
p725
aS'et'
p726
aS'ee'
p727
aS'fo'
p728
aS'fj'
p729
aS'fi'
p730
aS'fr'
p731
aS'fy'
p732
aS'ff'
p733
aS'gd'
p734
aS'gl'
p735
aS'lg'
p736
aS'ka'
p737
aS'de'
p738
aS'el'
p739
aS'gn'
p740
aS'gu'
p741
aS'ht'
p742
aS'ha'
p743
aS'he'
p744
aS'hz'
p745
aS'hi'
p746
aS'ho'
p747
aS'hu'
p748
aS'is'
p749
aS'io'
p750
aS'ig'
p751
aS'id'
p752
aS'ia'
p753
aS'ie'
p754
aS'iu'
p755
aS'ik'
p756
aS'ga'
p757
aS'it'
p758
aS'ja'
p759
aS'jv'
p760
aS'kl'
p761
aS'kn'
p762
aS'kr'
p763
aS'ks'
p764
aS'kk'
p765
aS'km'
p766
aS'ki'
p767
aS'rw'
p768
aS'ky'
p769
aS'kv'
p770
aS'kg'
p771
aS'ko'
p772
aS'kj'
p773
aS'ku'
p774
aS'lo'
p775
aS'la'
p776
aS'lv'
p777
aS'li'
p778
aS'ln'
p779
aS'lt'
p780
aS'lu'
p781
aS'lb'
p782
aS'mk'
p783
aS'mg'
p784
aS'ms'
p785
aS'ml'
p786
aS'mt'
p787
aS'gv'
p788
aS'mi'
p789
aS'mr'
p790
aS'mh'
p791
aS'mo'
p792
aS'mn'
p793
aS'na'
p794
aS'nv'
p795
aS'ng'
p796
aS'ne'
p797
aS'xn'
p798
aS'nd'
p799
aS'no'
p800
aS'nb'
p801
aS'nn'
p802
aS'oc'
p803
aS'oj'
p804
aS'or'
p805
aS'om'
p806
aS'os'
p807
aS'pi'
p808
aS'pa'
p809
aS'fa'
p810
aS'pl'
p811
aS'pt'
p812
aS'ps'
p813
aS'qu'
p814
aS'rm'
p815
aS'ro'
p816
aS'rn'
p817
aS'ru'
p818
aS'se'
p819
aS'sm'
p820
aS'sg'
p821
aS'sa'
p822
aS'sc'
p823
aS'sr'
p824
aS'sn'
p825
aS'ii'
p826
aS'sd'
p827
aS'si'
p828
aS'sk'
p829
aS'sl'
p830
aS'so'
p831
aS'st'
p832
aS'nr'
p833
aS'es'
p834
aS'su'
p835
aS'sw'
p836
aS'ss'
p837
aS'sv'
p838
aS'tl'
p839
aS'ty'
p840
aS'tg'
p841
aS'ta'
p842
aS'tt'
p843
aS'te'
p844
aS'th'
p845
aS'bo'
p846
aS'ti'
p847
aS'to'
p848
aS'ts'
p849
aS'tn'
p850
aS'tr'
p851
aS'tk'
p852
aS'tw'
p853
aS'ug'
p854
aS'uk'
p855
aS'ur'
p856
aS'uz'
p857
aS've'
p858
aS'vi'
p859
aS'vo'
p860
aS'wa'
p861
aS'cy'
p862
aS'wo'
p863
aS'xh'
p864
aS'yi'
p865
aS'yo'
p866
aS'za'
p867
aS'zu'
p868
asS'persist_stored_files'
p869
I01
sS'version'
p870
I0
sS'accepts_from'
p871
NsS'prefs'
p872
I00
sS'name'
p873
S'Home Theater Backdrops'
p874
sasS'com.plexapp.agents.lastfm'
p875
(lp876
(dp877
S'media_types'
p878
(lp879
S'Artist'
p880
asS'primary_provider'
p881
I01
sS'fallback_agent'
p882
NsS'contributes_to'
p883
Nsg228
I01
sS'languages'
p884
(lp885
S'en'
p886
aS'sv'
p887
aS'fr'
p888
aS'es'
p889
aS'de'
p890
aS'pl'
p891
aS'it'
p892
aS'pt'
p893
aS'ja'
p894
aS'tr'
p895
aS'ru'
p896
aS'zh'
p897
asS'persist_stored_files'
p898
I01
sS'version'
p899
I0
sS'accepts_from'
p900
NsS'prefs'
p901
I01
sS'name'
p902
S'Last.fm'
p903
sa(dp904
S'media_types'
p905
(lp906
S'Album'
p907
asS'primary_provider'
p908
I01
sS'fallback_agent'
p909
NsS'contributes_to'
p910
Nsg228
I01
sS'languages'
p911
(lp912
S'en'
p913
aS'sv'
p914
aS'fr'
p915
aS'es'
p916
aS'de'
p917
aS'pl'
p918
aS'it'
p919
aS'pt'
p920
aS'ja'
p921
aS'tr'
p922
aS'ru'
p923
aS'zh'
p924
asS'persist_stored_files'
p925
I01
sS'version'
p926
I0
sS'accepts_from'
p927
NsS'prefs'
p928
I01
sS'name'
p929
S'Last.fm'
p930
sass.